target datalayout = "e-m:e-p270:32:32-p271:32:32-p272:64:64-i64:64-i128:128-f80:128-n8:16:32:64-S128"
target triple = "x86_64-pc-linux-gnu"

%struct.client = type { i64, i64, ptr, i8, i8, i8, i8, i32, ptr, ptr, ptr, ptr, ptr, i64, i64, i32, ptr, i32, i32, ptr, i64, ptr, ptr, ptr, ptr, ptr, i32, i32, i64, ptr, i64, ptr, i64, i64, i64, i32, ptr, i64, i64, i32, i32, i32, i32, i64, i64, ptr, i64, i64, i64, i64, i64, i64, i64, i64, [41 x i8], i32, ptr, i32, i32, i64, %struct.multiState, %struct.blockingState, i64, ptr, ptr, ptr, ptr, ptr, ptr, ptr, ptr, ptr, ptr, ptr, ptr, ptr, ptr, i64, ptr, i64, i32, ptr, ptr, ptr, i64, %struct.listNode, i64, i64, i32, i64, ptr }
%struct.multiState = type { ptr, i32, i32, i32, i64, i32 }
%struct.blockingState = type { i32, i64, i32, ptr, i32, i32, i64, ptr, ptr, i64 }
%struct.listNode = type { ptr, ptr, ptr }

@.str.12 = private unnamed_addr constant [25 x i8] c"decrement would overflow\00", align 1

; Function Attrs: nounwind uwtable
define dso_local void @decrbyCommand(ptr noundef %0) #0 {
  %2 = alloca ptr, align 8
  %3 = alloca i64, align 8
  %4 = alloca i32, align 4
  store ptr %0, ptr %2, align 8, !tbaa !5
  call void @llvm.lifetime.start.p0(i64 8, ptr %3) #10
  %5 = load ptr, ptr %2, align 8, !tbaa !5
  %6 = load ptr, ptr %2, align 8, !tbaa !5
  %7 = getelementptr inbounds nuw %struct.client, ptr %6, i32 0, i32 16
  %8 = load ptr, ptr %7, align 8, !tbaa !63
  %9 = getelementptr inbounds ptr, ptr %8, i64 2
  %10 = load ptr, ptr %9, align 8, !tbaa !12
  %11 = call i32 @getLongLongFromObjectOrReply(ptr noundef %5, ptr noundef %10, ptr noundef %3, ptr noundef null)
  %12 = icmp ne i32 %11, 0
  br i1 %12, label %13, label %14

13:                                               ; preds = %1
  store i32 1, ptr %4, align 4
  br label %23

14:                                               ; preds = %1
  %15 = load i64, ptr %3, align 8, !tbaa !14
  %16 = icmp eq i64 %15, -9223372036854775808
  br i1 %16, label %17, label %19

17:                                               ; preds = %14
  %18 = load ptr, ptr %2, align 8, !tbaa !5
  call void @addReplyError(ptr noundef %18, ptr noundef @.str.12)
  store i32 1, ptr %4, align 4
  br label %23

19:                                               ; preds = %14
  %20 = load ptr, ptr %2, align 8, !tbaa !5
  %21 = load i64, ptr %3, align 8, !tbaa !14
  %22 = sub nsw i64 0, %21
  call void @incrDecrCommand(ptr noundef %20, i64 noundef %22)
  store i32 0, ptr %4, align 4
  br label %23

23:                                               ; preds = %19, %17, %13
  call void @llvm.lifetime.end.p0(i64 8, ptr %3) #10
  %24 = load i32, ptr %4, align 4
  switch i32 %24, label %26 [
    i32 0, label %25
    i32 1, label %25
  ]

25:                                               ; preds = %23, %23
  ret void

26:                                               ; preds = %23
  unreachable
}