; Function Attrs: nounwind uwtable
define dso_local void @decrbyCommand(ptr noundef %0) local_unnamed_addr #0 {
  %2 = alloca i64, align 8
  call void @llvm.lifetime.start.p0(i64 8, ptr nonnull %2) #11
  %3 = getelementptr inbounds nuw i8, ptr %0, i64 96
  %4 = load ptr, ptr %3, align 8, !tbaa !9
  %5 = getelementptr inbounds nuw i8, ptr %4, i64 16
  %6 = load ptr, ptr %5, align 8, !tbaa !29
  %7 = call i32 @getLongLongFromObjectOrReply(ptr noundef %0, ptr noundef %6, ptr noundef nonnull %2, ptr noundef null) #11
  %.not = icmp eq i32 %7, 0
  br i1 %.not, label %8, label %14

8:                                                ; preds = %1
  %9 = load i64, ptr %2, align 8, !tbaa !5
  %10 = icmp eq i64 %9, -9223372036854775808
  br i1 %10, label %11, label %12

11:                                               ; preds = %8
  call void @addReplyError(ptr noundef nonnull %0, ptr noundef nonnull @.str.12) #11
  br label %14

12:                                               ; preds = %8
  %13 = sub nsw i64 0, %9
  call void @incrDecrCommand(ptr noundef nonnull %0, i64 noundef %13)
  br label %14

14:                                               ; preds = %1, %12, %11
  call void @llvm.lifetime.end.p0(i64 8, ptr nonnull %2) #11
  ret void
}